target datalayout = "e-m:e-p270:32:32-p271:32:32-p272:64:64-i64:64-i128:128-f80:128-n8:16:32:64-S128"
target triple = "x86_64-pc-linux-gnu"

%struct.AVFilterContext = type { ptr, ptr, ptr, ptr, ptr, i32, ptr, ptr, i32, ptr, ptr, i32, i32, ptr, ptr, ptr, ptr, i32, ptr, i32, i32 }
%struct.StreamSelectContext = type { ptr, i32, ptr, ptr, i32, i32, ptr, ptr, %struct.FFFrameSync }
%struct.FFFrameSync = type { ptr, ptr, i32, %struct.AVRational, i64, ptr, ptr, i32, i32, i8, i8, ptr, i32, i32, i32, i32 }
%struct.AVRational = type { i32, i32 }
%struct.AVFilterLink = type { ptr, ptr, ptr, ptr, i32, i32, i32, i32, %struct.AVRational, i32, i32, i32, %struct.AVChannelLayout, %struct.AVRational, ptr, i32, %struct.AVFilterFormatsConfig, %struct.AVFilterFormatsConfig }
%struct.AVChannelLayout = type { i32, i32, %union.anon.2, ptr }
%union.anon.2 = type { i64 }
%struct.AVFilterFormatsConfig = type { ptr, ptr, ptr, ptr, ptr }
%struct.FilterLink = type { %struct.AVFilterLink, ptr, i64, i64, i32, i32, i64, i64, i64, i64, %struct.AVRational, ptr }
%struct.AVFrame = type { [8 x ptr], [8 x i32], ptr, i32, i32, i32, i32, i32, %struct.AVRational, i64, i64, %struct.AVRational, i32, ptr, i32, i32, [8 x ptr], ptr, i32, ptr, i32, i32, i32, i32, i32, i32, i32, i64, ptr, i32, ptr, ptr, i64, i64, i64, i64, ptr, %struct.AVChannelLayout, i64 }

; Function Attrs: inlinehint nounwind uwtable
define internal ptr @ff_filter_link(ptr noundef %0) #7 {
  %2 = alloca ptr, align 8
  store ptr %0, ptr %2, align 8, !tbaa !53
  %3 = load ptr, ptr %2, align 8, !tbaa !53
  ret ptr %3
}

; Function Attrs: nounwind uwtable
define internal i32 @process_frame(ptr noundef %0) #1 {
  %2 = alloca i32, align 4
  %3 = alloca ptr, align 8
  %4 = alloca ptr, align 8
  %5 = alloca ptr, align 8
  %6 = alloca ptr, align 8
  %7 = alloca i32, align 4
  %8 = alloca i32, align 4
  %9 = alloca i32, align 4
  %10 = alloca i32, align 4
  %11 = alloca i32, align 4
  %12 = alloca ptr, align 8
  %13 = alloca ptr, align 8
  store ptr %0, ptr %3, align 8, !tbaa !85
  call void @llvm.lifetime.start.p0(i64 8, ptr %4) #10
  %14 = load ptr, ptr %3, align 8, !tbaa !85
  %15 = getelementptr inbounds nuw %struct.FFFrameSync, ptr %14, i32 0, i32 1
  %16 = load ptr, ptr %15, align 8, !tbaa !87
  store ptr %16, ptr %4, align 8, !tbaa !4
  call void @llvm.lifetime.start.p0(i64 8, ptr %5) #10
  %17 = load ptr, ptr %3, align 8, !tbaa !85
  %18 = getelementptr inbounds nuw %struct.FFFrameSync, ptr %17, i32 0, i32 6
  %19 = load ptr, ptr %18, align 8, !tbaa !88
  store ptr %19, ptr %5, align 8, !tbaa !22
  call void @llvm.lifetime.start.p0(i64 8, ptr %6) #10
  %20 = load ptr, ptr %5, align 8, !tbaa !22
  %21 = getelementptr inbounds nuw %struct.StreamSelectContext, ptr %20, i32 0, i32 7
  %22 = load ptr, ptr %21, align 8, !tbaa !84
  store ptr %22, ptr %6, align 8, !tbaa !89
  call void @llvm.lifetime.start.p0(i64 4, ptr %7) #10
  call void @llvm.lifetime.start.p0(i64 4, ptr %8) #10
  call void @llvm.lifetime.start.p0(i64 4, ptr %9) #10
  store i32 0, ptr %9, align 4, !tbaa !24
  call void @llvm.lifetime.start.p0(i64 4, ptr %10) #10
  store i32 0, ptr %10, align 4, !tbaa !24
  store i32 0, ptr %7, align 4, !tbaa !24
  br label %23

23:                                               ; preds = %42, %1
  %24 = load i32, ptr %7, align 4, !tbaa !24
  %25 = load ptr, ptr %4, align 8, !tbaa !4
  %26 = getelementptr inbounds nuw %struct.AVFilterContext, ptr %25, i32 0, i32 5
  %27 = load i32, ptr %26, align 8, !tbaa !43
  %28 = icmp ult i32 %24, %27
  br i1 %28, label %29, label %45

29:                                               ; preds = %23
  %30 = load ptr, ptr %5, align 8, !tbaa !22
  %31 = getelementptr inbounds nuw %struct.StreamSelectContext, ptr %30, i32 0, i32 8
  %32 = load i32, ptr %7, align 4, !tbaa !24
  %33 = load ptr, ptr %6, align 8, !tbaa !89
  %34 = load i32, ptr %7, align 4, !tbaa !24
  %35 = sext i32 %34 to i64
  %36 = getelementptr inbounds ptr, ptr %33, i64 %35
  %37 = call i32 @ff_framesync_get_frame(ptr noundef %31, i32 noundef %32, ptr noundef %36, i32 noundef 0)
  store i32 %37, ptr %9, align 4, !tbaa !24
  %38 = icmp slt i32 %37, 0
  br i1 %38, label %39, label %41

39:                                               ; preds = %29
  %40 = load i32, ptr %9, align 4, !tbaa !24
  store i32 %40, ptr %2, align 4
  store i32 1, ptr %11, align 4
  br label %183

41:                                               ; preds = %29
  br label %42

42:                                               ; preds = %41
  %43 = load i32, ptr %7, align 4, !tbaa !24
  %44 = add nsw i32 %43, 1
  store i32 %44, ptr %7, align 4, !tbaa !24
  br label %23, !llvm.loop !90

45:                                               ; preds = %23
  store i32 0, ptr %8, align 4, !tbaa !24
  br label %46

46:                                               ; preds = %173, %45
  %47 = load i32, ptr %8, align 4, !tbaa !24
  %48 = load ptr, ptr %4, align 8, !tbaa !4
  %49 = getelementptr inbounds nuw %struct.AVFilterContext, ptr %48, i32 0, i32 5
  %50 = load i32, ptr %49, align 8, !tbaa !43
  %51 = icmp ult i32 %47, %50
  br i1 %51, label %52, label %176

52:                                               ; preds = %46
  store i32 0, ptr %7, align 4, !tbaa !24
  br label %53

53:                                               ; preds = %169, %52
  %54 = load i32, ptr %7, align 4, !tbaa !24
  %55 = load ptr, ptr %5, align 8, !tbaa !22
  %56 = getelementptr inbounds nuw %struct.StreamSelectContext, ptr %55, i32 0, i32 4
  %57 = load i32, ptr %56, align 8, !tbaa !52
  %58 = icmp slt i32 %54, %57
  br i1 %58, label %59, label %172

59:                                               ; preds = %53
  call void @llvm.lifetime.start.p0(i64 8, ptr %12) #10
  %60 = load ptr, ptr %4, align 8, !tbaa !4
  %61 = getelementptr inbounds nuw %struct.AVFilterContext, ptr %60, i32 0, i32 7
  %62 = load ptr, ptr %61, align 8, !tbaa !91
  %63 = load i32, ptr %7, align 4, !tbaa !24
  %64 = sext i32 %63 to i64
  %65 = getelementptr inbounds ptr, ptr %62, i64 %64
  %66 = load ptr, ptr %65, align 8, !tbaa !53
  %67 = call ptr @ff_filter_link(ptr noundef %66)
  store ptr %67, ptr %12, align 8, !tbaa !55
  %68 = load ptr, ptr %5, align 8, !tbaa !22
  %69 = getelementptr inbounds nuw %struct.StreamSelectContext, ptr %68, i32 0, i32 3
  %70 = load ptr, ptr %69, align 8, !tbaa !51
  %71 = load i32, ptr %7, align 4, !tbaa !24
  %72 = sext i32 %71 to i64
  %73 = getelementptr inbounds i32, ptr %70, i64 %72
  %74 = load i32, ptr %73, align 4, !tbaa !24
  %75 = load i32, ptr %8, align 4, !tbaa !24
  %76 = icmp eq i32 %74, %75
  br i1 %76, label %77, label %165

77:                                               ; preds = %59
  call void @llvm.lifetime.start.p0(i64 8, ptr %13) #10
  %78 = load ptr, ptr %5, align 8, !tbaa !22
  %79 = getelementptr inbounds nuw %struct.StreamSelectContext, ptr %78, i32 0, i32 5
  %80 = load i32, ptr %79, align 4, !tbaa !38
  %81 = icmp ne i32 %80, 0
  br i1 %81, label %82, label %104

82:                                               ; preds = %77
  %83 = load ptr, ptr %5, align 8, !tbaa !22
  %84 = getelementptr inbounds nuw %struct.StreamSelectContext, ptr %83, i32 0, i32 6
  %85 = load ptr, ptr %84, align 8, !tbaa !42
  %86 = load i32, ptr %8, align 4, !tbaa !24
  %87 = sext i32 %86 to i64
  %88 = getelementptr inbounds i64, ptr %85, i64 %87
  %89 = load i64, ptr %88, align 8, !tbaa !92
  %90 = load ptr, ptr %6, align 8, !tbaa !89
  %91 = load i32, ptr %8, align 4, !tbaa !24
  %92 = sext i32 %91 to i64
  %93 = getelementptr inbounds ptr, ptr %90, i64 %92
  %94 = load ptr, ptr %93, align 8, !tbaa !93
  %95 = getelementptr inbounds nuw %struct.AVFrame, ptr %94, i32 0, i32 9
  %96 = load i64, ptr %95, align 8, !tbaa !94
  %97 = icmp eq i64 %89, %96
  br i1 %97, label %98, label %104

98:                                               ; preds = %82
  %99 = load ptr, ptr %12, align 8, !tbaa !55
  %100 = getelementptr inbounds nuw %struct.FilterLink, ptr %99, i32 0, i32 6
  %101 = load i64, ptr %100, align 8, !tbaa !99
  %102 = icmp sgt i64 %101, 0
  br i1 %102, label %103, label %104

103:                                              ; preds = %98
  store i32 10, ptr %11, align 4
  br label %162

104:                                              ; preds = %98, %82, %77
  %105 = load ptr, ptr %6, align 8, !tbaa !89
  %106 = load i32, ptr %8, align 4, !tbaa !24
  %107 = sext i32 %106 to i64
  %108 = getelementptr inbounds ptr, ptr %105, i64 %107
  %109 = load ptr, ptr %108, align 8, !tbaa !93
  %110 = call ptr @av_frame_clone(ptr noundef %109)
  store ptr %110, ptr %13, align 8, !tbaa !93
  %111 = load ptr, ptr %13, align 8, !tbaa !93
  %112 = icmp ne ptr %111, null
  br i1 %112, label %114, label %113

113:                                              ; preds = %104
  store i32 -12, ptr %2, align 4
  store i32 1, ptr %11, align 4
  br label %162

114:                                              ; preds = %104
  %115 = load ptr, ptr %5, align 8, !tbaa !22
  %116 = getelementptr inbounds nuw %struct.StreamSelectContext, ptr %115, i32 0, i32 8
  %117 = getelementptr inbounds nuw %struct.FFFrameSync, ptr %116, i32 0, i32 4
  %118 = load i64, ptr %117, align 8, !tbaa !101
  %119 = load ptr, ptr %5, align 8, !tbaa !22
  %120 = getelementptr inbounds nuw %struct.StreamSelectContext, ptr %119, i32 0, i32 8
  %121 = getelementptr inbounds nuw %struct.FFFrameSync, ptr %120, i32 0, i32 3
  %122 = load ptr, ptr %4, align 8, !tbaa !4
  %123 = getelementptr inbounds nuw %struct.AVFilterContext, ptr %122, i32 0, i32 7
  %124 = load ptr, ptr %123, align 8, !tbaa !91
  %125 = load i32, ptr %7, align 4, !tbaa !24
  %126 = sext i32 %125 to i64
  %127 = getelementptr inbounds ptr, ptr %124, i64 %126
  %128 = load ptr, ptr %127, align 8, !tbaa !53
  %129 = getelementptr inbounds nuw %struct.AVFilterLink, ptr %128, i32 0, i32 13
  %130 = load i64, ptr %121, align 4
  %131 = load i64, ptr %129, align 8
  %132 = call i64 @av_rescale_q(i64 noundef %118, i64 %130, i64 %131) #12
  %133 = load ptr, ptr %13, align 8, !tbaa !93
  %134 = getelementptr inbounds nuw %struct.AVFrame, ptr %133, i32 0, i32 9
  store i64 %132, ptr %134, align 8, !tbaa !94
  %135 = load ptr, ptr %6, align 8, !tbaa !89
  %136 = load i32, ptr %8, align 4, !tbaa !24
  %137 = sext i32 %136 to i64
  %138 = getelementptr inbounds ptr, ptr %135, i64 %137
  %139 = load ptr, ptr %138, align 8, !tbaa !93
  %140 = getelementptr inbounds nuw %struct.AVFrame, ptr %139, i32 0, i32 9
  %141 = load i64, ptr %140, align 8, !tbaa !94
  %142 = load ptr, ptr %5, align 8, !tbaa !22
  %143 = getelementptr inbounds nuw %struct.StreamSelectContext, ptr %142, i32 0, i32 6
  %144 = load ptr, ptr %143, align 8, !tbaa !42
  %145 = load i32, ptr %8, align 4, !tbaa !24
  %146 = sext i32 %145 to i64
  %147 = getelementptr inbounds i64, ptr %144, i64 %146
  store i64 %141, ptr %147, align 8, !tbaa !92
  %148 = load ptr, ptr %4, align 8, !tbaa !4
  %149 = getelementptr inbounds nuw %struct.AVFilterContext, ptr %148, i32 0, i32 7
  %150 = load ptr, ptr %149, align 8, !tbaa !91
  %151 = load i32, ptr %7, align 4, !tbaa !24
  %152 = sext i32 %151 to i64
  %153 = getelementptr inbounds ptr, ptr %150, i64 %152
  %154 = load ptr, ptr %153, align 8, !tbaa !53
  %155 = load ptr, ptr %13, align 8, !tbaa !93
  %156 = call i32 @ff_filter_frame(ptr noundef %154, ptr noundef %155)
  store i32 %156, ptr %9, align 4, !tbaa !24
  store i32 1, ptr %10, align 4, !tbaa !24
  %157 = load i32, ptr %9, align 4, !tbaa !24
  %158 = icmp slt i32 %157, 0
  br i1 %158, label %159, label %161

159:                                              ; preds = %114
  %160 = load i32, ptr %9, align 4, !tbaa !24
  store i32 %160, ptr %2, align 4
  store i32 1, ptr %11, align 4
  br label %162

161:                                              ; preds = %114
  store i32 0, ptr %11, align 4
  br label %162

162:                                              ; preds = %161, %159, %113, %103
  call void @llvm.lifetime.end.p0(i64 8, ptr %13) #10
  %163 = load i32, ptr %11, align 4
  switch i32 %163, label %166 [
    i32 0, label %164
  ]

164:                                              ; preds = %162
  br label %165

165:                                              ; preds = %164, %59
  store i32 0, ptr %11, align 4
  br label %166

166:                                              ; preds = %165, %162
  call void @llvm.lifetime.end.p0(i64 8, ptr %12) #10
  %167 = load i32, ptr %11, align 4
  switch i32 %167, label %183 [
    i32 0, label %168
    i32 10, label %169
  ]

168:                                              ; preds = %166
  br label %169

169:                                              ; preds = %168, %166
  %170 = load i32, ptr %7, align 4, !tbaa !24
  %171 = add nsw i32 %170, 1
  store i32 %171, ptr %7, align 4, !tbaa !24
  br label %53, !llvm.loop !102

172:                                              ; preds = %53
  br label %173

173:                                              ; preds = %172
  %174 = load i32, ptr %8, align 4, !tbaa !24
  %175 = add nsw i32 %174, 1
  store i32 %175, ptr %8, align 4, !tbaa !24
  br label %46, !llvm.loop !103

176:                                              ; preds = %46
  %177 = load i32, ptr %10, align 4, !tbaa !24
  %178 = icmp ne i32 %177, 0
  br i1 %178, label %181, label %179

179:                                              ; preds = %176
  %180 = load ptr, ptr %4, align 8, !tbaa !4
  call void @ff_filter_set_ready(ptr noundef %180, i32 noundef 100)
  br label %181

181:                                              ; preds = %179, %176
  %182 = load i32, ptr %9, align 4, !tbaa !24
  store i32 %182, ptr %2, align 4
  store i32 1, ptr %11, align 4
  br label %183

183:                                              ; preds = %181, %166, %39
  call void @llvm.lifetime.end.p0(i64 4, ptr %10) #10
  call void @llvm.lifetime.end.p0(i64 4, ptr %9) #10
  call void @llvm.lifetime.end.p0(i64 4, ptr %8) #10
  call void @llvm.lifetime.end.p0(i64 4, ptr %7) #10
  call void @llvm.lifetime.end.p0(i64 8, ptr %6) #10
  call void @llvm.lifetime.end.p0(i64 8, ptr %5) #10
  call void @llvm.lifetime.end.p0(i64 8, ptr %4) #10
  %184 = load i32, ptr %2, align 4
  ret i32 %184
}