; Function Attrs: nounwind uwtable
define internal i32 @process_frame(ptr noundef readonly captures(none) %0) #1 {
  %2 = getelementptr inbounds nuw i8, ptr %0, i64 8
  %3 = load ptr, ptr %2, align 8, !tbaa !76
  %4 = getelementptr inbounds nuw i8, ptr %0, i64 48
  %5 = load ptr, ptr %4, align 8, !tbaa !77
  %6 = getelementptr inbounds nuw i8, ptr %5, i64 48
  %7 = load ptr, ptr %6, align 8, !tbaa !75
  %8 = getelementptr inbounds nuw i8, ptr %3, i64 40
  %9 = load i32, ptr %8, align 8, !tbaa !37
  %.not128 = icmp eq i32 %9, 0
  br i1 %.not128, label %._crit_edge124.thread, label %.lr.ph

.lr.ph:                                           ; preds = %1
  %10 = getelementptr inbounds nuw i8, ptr %5, i64 56
  br label %24

11:                                               ; preds = %24
  %indvars.iv.next = add nuw nsw i64 %indvars.iv, 1
  %12 = load i32, ptr %8, align 8, !tbaa !37
  %13 = zext i32 %12 to i64
  %14 = icmp samesign ult i64 %indvars.iv.next, %13
  br i1 %14, label %24, label %.preheader101, !llvm.loop !78

.preheader101:                                    ; preds = %11
  %.not129 = icmp eq i32 %12, 0
  br i1 %.not129, label %._crit_edge124.thread, label %.preheader.lr.ph

.preheader.lr.ph:                                 ; preds = %.preheader101
  %15 = getelementptr inbounds nuw i8, ptr %5, i64 32
  %16 = getelementptr inbounds nuw i8, ptr %3, i64 56
  %17 = getelementptr inbounds nuw i8, ptr %5, i64 24
  %18 = getelementptr inbounds nuw i8, ptr %5, i64 36
  %19 = getelementptr inbounds nuw i8, ptr %5, i64 40
  %20 = getelementptr inbounds nuw i8, ptr %5, i64 88
  %21 = getelementptr inbounds nuw i8, ptr %5, i64 76
  %22 = load i32, ptr %15, align 8, !tbaa !47
  %23 = icmp sgt i32 %22, 0
  br i1 %23, label %.preheader, label %._crit_edge124.thread

24:                                               ; preds = %.lr.ph, %11
  %indvars.iv = phi i64 [ 0, %.lr.ph ], [ %indvars.iv.next, %11 ]
  %25 = getelementptr inbounds nuw ptr, ptr %7, i64 %indvars.iv
  %26 = trunc nuw nsw i64 %indvars.iv to i32
  %27 = tail call i32 @ff_framesync_get_frame(ptr noundef nonnull %10, i32 noundef %26, ptr noundef %25, i32 noundef 0) #9
  %28 = icmp slt i32 %27, 0
  br i1 %28, label %.thread.thread, label %11

.preheader:                                       ; preds = %.preheader.lr.ph, %._crit_edge
  %29 = phi i32 [ %79, %._crit_edge ], [ %12, %.preheader.lr.ph ]
  %30 = phi i32 [ %80, %._crit_edge ], [ %22, %.preheader.lr.ph ]
  %31 = phi i32 [ %81, %._crit_edge ], [ %22, %.preheader.lr.ph ]
  %indvars.iv137 = phi i64 [ %indvars.iv.next138, %._crit_edge ], [ 0, %.preheader.lr.ph ]
  %.054122 = phi i32 [ %.155.lcssa, %._crit_edge ], [ 0, %.preheader.lr.ph ]
  %.160121 = phi i32 [ %.261.lcssa, %._crit_edge ], [ %27, %.preheader.lr.ph ]
  %32 = icmp sgt i32 %31, 0
  br i1 %32, label %.lr.ph116, label %._crit_edge

.lr.ph116:                                        ; preds = %.preheader
  %33 = getelementptr inbounds nuw ptr, ptr %7, i64 %indvars.iv137
  br label %34

34:                                               ; preds = %.lr.ph116, %.thread84
  %35 = phi i32 [ %30, %.lr.ph116 ], [ %76, %.thread84 ]
  %indvars.iv134 = phi i64 [ 0, %.lr.ph116 ], [ %indvars.iv.next135, %.thread84 ]
  %.155113 = phi i32 [ %.054122, %.lr.ph116 ], [ %.45890, %.thread84 ]
  %.261112 = phi i32 [ %.160121, %.lr.ph116 ], [ %.56489, %.thread84 ]
  %36 = load ptr, ptr %16, align 8, !tbaa !79
  %37 = getelementptr inbounds nuw ptr, ptr %36, i64 %indvars.iv134
  %38 = load ptr, ptr %37, align 8, !tbaa !58
  %39 = load ptr, ptr %17, align 8, !tbaa !46
  %40 = getelementptr inbounds nuw i32, ptr %39, i64 %indvars.iv134
  %41 = load i32, ptr %40, align 4, !tbaa !45
  %42 = zext i32 %41 to i64
  %43 = icmp eq i64 %indvars.iv137, %42
  br i1 %43, label %44, label %.thread84

44:                                               ; preds = %34
  %45 = load i32, ptr %18, align 4, !tbaa !33
  %.not71 = icmp eq i32 %45, 0
  %.pre = load ptr, ptr %33, align 8, !tbaa !80
  br i1 %.not71, label %57, label %46

46:                                               ; preds = %44
  %47 = load ptr, ptr %19, align 8, !tbaa !36
  %48 = getelementptr inbounds nuw i64, ptr %47, i64 %indvars.iv137
  %49 = load i64, ptr %48, align 8, !tbaa !81
  %50 = getelementptr inbounds nuw i8, ptr %.pre, i64 136
  %51 = load i64, ptr %50, align 8, !tbaa !82
  %52 = icmp eq i64 %49, %51
  br i1 %52, label %53, label %57

53:                                               ; preds = %46
  %54 = getelementptr inbounds nuw i8, ptr %38, i64 232
  %55 = load i64, ptr %54, align 8, !tbaa !87
  %56 = icmp sgt i64 %55, 0
  br i1 %56, label %.thread84, label %57

57:                                               ; preds = %53, %46, %44
  %58 = tail call ptr @av_frame_clone(ptr noundef %.pre) #9
  %.not72 = icmp eq ptr %58, null
  br i1 %.not72, label %.thread.thread, label %59

59:                                               ; preds = %57
  %60 = load i64, ptr %20, align 8, !tbaa !89
  %61 = load ptr, ptr %16, align 8, !tbaa !79
  %62 = getelementptr inbounds nuw ptr, ptr %61, i64 %indvars.iv134
  %63 = load ptr, ptr %62, align 8, !tbaa !58
  %64 = getelementptr inbounds nuw i8, ptr %63, i64 96
  %65 = load i64, ptr %21, align 4
  %66 = load i64, ptr %64, align 8
  %67 = tail call i64 @av_rescale_q(i64 noundef %60, i64 %65, i64 %66) #10
  %68 = getelementptr inbounds nuw i8, ptr %58, i64 136
  store i64 %67, ptr %68, align 8, !tbaa !82
  %69 = load ptr, ptr %33, align 8, !tbaa !80
  %70 = getelementptr inbounds nuw i8, ptr %69, i64 136
  %71 = load i64, ptr %70, align 8, !tbaa !82
  %72 = load ptr, ptr %19, align 8, !tbaa !36
  %73 = getelementptr inbounds nuw i64, ptr %72, i64 %indvars.iv137
  store i64 %71, ptr %73, align 8, !tbaa !81
  %74 = tail call i32 @ff_filter_frame(ptr noundef %63, ptr noundef nonnull %58) #9
  %.fr = freeze i32 %74
  %75 = icmp sgt i32 %.fr, -1
  br i1 %75, label %..thread84_crit_edge, label %.thread.thread

..thread84_crit_edge:                             ; preds = %59
  %.pre140 = load i32, ptr %15, align 8, !tbaa !47
  br label %.thread84

.thread84:                                        ; preds = %..thread84_crit_edge, %53, %34
  %76 = phi i32 [ %35, %34 ], [ %.pre140, %..thread84_crit_edge ], [ %35, %53 ]
  %.45890 = phi i32 [ %.155113, %34 ], [ 1, %..thread84_crit_edge ], [ %.155113, %53 ]
  %.56489 = phi i32 [ %.261112, %34 ], [ %.fr, %..thread84_crit_edge ], [ %.261112, %53 ]
  %indvars.iv.next135 = add nuw nsw i64 %indvars.iv134, 1
  %77 = sext i32 %76 to i64
  %78 = icmp slt i64 %indvars.iv.next135, %77
  br i1 %78, label %34, label %._crit_edge.loopexit, !llvm.loop !90

._crit_edge.loopexit:                             ; preds = %.thread84
  %.pre141 = load i32, ptr %8, align 8, !tbaa !37
  br label %._crit_edge

._crit_edge:                                      ; preds = %._crit_edge.loopexit, %.preheader
  %79 = phi i32 [ %29, %.preheader ], [ %.pre141, %._crit_edge.loopexit ]
  %80 = phi i32 [ %30, %.preheader ], [ %76, %._crit_edge.loopexit ]
  %81 = phi i32 [ %31, %.preheader ], [ %76, %._crit_edge.loopexit ]
  %.261.lcssa = phi i32 [ %.160121, %.preheader ], [ %.56489, %._crit_edge.loopexit ]
  %.155.lcssa = phi i32 [ %.054122, %.preheader ], [ %.45890, %._crit_edge.loopexit ]
  %indvars.iv.next138 = add nuw nsw i64 %indvars.iv137, 1
  %82 = zext i32 %79 to i64
  %83 = icmp samesign ult i64 %indvars.iv.next138, %82
  br i1 %83, label %.preheader, label %._crit_edge124, !llvm.loop !91

._crit_edge124:                                   ; preds = %._crit_edge
  %84 = icmp eq i32 %.155.lcssa, 0
  br i1 %84, label %._crit_edge124.thread, label %.thread.thread

._crit_edge124.thread:                            ; preds = %1, %.preheader.lr.ph, %.preheader101, %._crit_edge124
  %.160.lcssa146 = phi i32 [ %.261.lcssa, %._crit_edge124 ], [ %27, %.preheader.lr.ph ], [ %27, %.preheader101 ], [ 0, %1 ]
  tail call void @ff_filter_set_ready(ptr noundef nonnull %3, i32 noundef 100) #9
  br label %.thread.thread

.thread.thread:                                   ; preds = %24, %59, %57, %._crit_edge124, %._crit_edge124.thread
  %.0 = phi i32 [ %.160.lcssa146, %._crit_edge124.thread ], [ %.261.lcssa, %._crit_edge124 ], [ %.fr, %59 ], [ -12, %57 ], [ %27, %24 ]
  ret i32 %.0
}